target datalayout = "e-m:e-p270:32:32-p271:32:32-p272:64:64-i64:64-i128:128-f80:128-n8:16:32:64-S128"
target triple = "x86_64-pc-linux-gnu"

%struct.except_stacknode = type { ptr, i32, %union.anon }
%union.anon = type { ptr }
%struct.except_catch = type { ptr, i64, %struct.except_t, [1 x %struct.__jmp_buf_tag] }
%struct.except_t = type { %struct.except_id_t, ptr, ptr }
%struct.except_id_t = type { i64, i64 }
%struct.__jmp_buf_tag = type { [8 x i64], i32, %struct.__sigset_t }
%struct.__sigset_t = type { [16 x i64] }

@stack_top = internal thread_local global ptr null, align 8

; Function Attrs: nounwind uwtable
define internal void @stack_push(ptr noundef %0) #0 {
  %2 = alloca ptr, align 8
  store ptr %0, ptr %2, align 8
  %3 = call align 8 ptr @llvm.threadlocal.address.p0(ptr align 8 @stack_top)
  %4 = load ptr, ptr %3, align 8
  %5 = load ptr, ptr %2, align 8
  %6 = getelementptr inbounds %struct.except_stacknode, ptr %5, i32 0, i32 0
  store ptr %4, ptr %6, align 8
  %7 = load ptr, ptr %2, align 8
  %8 = call align 8 ptr @llvm.threadlocal.address.p0(ptr align 8 @stack_top)
  store ptr %7, ptr %8, align 8
  ret void
}

; Function Attrs: nounwind uwtable
define void @except_setup_try(ptr noundef %0, ptr noundef %1, ptr noundef %2, i64 noundef %3) #0 {
  %5 = alloca ptr, align 8
  %6 = alloca ptr, align 8
  %7 = alloca ptr, align 8
  %8 = alloca i64, align 8
  store ptr %0, ptr %5, align 8
  store ptr %1, ptr %6, align 8
  store ptr %2, ptr %7, align 8
  store i64 %3, ptr %8, align 8
  %9 = load ptr, ptr %7, align 8
  %10 = load ptr, ptr %6, align 8
  %11 = getelementptr inbounds %struct.except_catch, ptr %10, i32 0, i32 0
  store ptr %9, ptr %11, align 8
  %12 = load i64, ptr %8, align 8
  %13 = load ptr, ptr %6, align 8
  %14 = getelementptr inbounds %struct.except_catch, ptr %13, i32 0, i32 1
  store i64 %12, ptr %14, align 8
  %15 = load ptr, ptr %6, align 8
  %16 = getelementptr inbounds %struct.except_catch, ptr %15, i32 0, i32 2
  %17 = getelementptr inbounds %struct.except_t, ptr %16, i32 0, i32 2
  store volatile ptr null, ptr %17, align 8
  %18 = load ptr, ptr %5, align 8
  %19 = getelementptr inbounds %struct.except_stacknode, ptr %18, i32 0, i32 1
  store i32 1, ptr %19, align 8
  %20 = load ptr, ptr %6, align 8
  %21 = load ptr, ptr %5, align 8
  %22 = getelementptr inbounds %struct.except_stacknode, ptr %21, i32 0, i32 2
  store ptr %20, ptr %22, align 8
  %23 = load ptr, ptr %5, align 8
  call void @stack_push(ptr noundef %23)
  ret void
}