; Function Attrs: nofree norecurse nounwind uwtable
define void @except_setup_try(ptr noundef initializes((0, 12), (16, 24)) %0, ptr noundef initializes((0, 16)) %1, ptr noundef %2, i64 noundef %3) local_unnamed_addr #2 {
  store ptr %2, ptr %1, align 8
  %5 = getelementptr inbounds nuw i8, ptr %1, i64 8
  store i64 %3, ptr %5, align 8
  %6 = getelementptr inbounds nuw i8, ptr %1, i64 40
  store volatile ptr null, ptr %6, align 8
  %7 = getelementptr inbounds nuw i8, ptr %0, i64 8
  store i32 1, ptr %7, align 8
  %8 = getelementptr inbounds nuw i8, ptr %0, i64 16
  store ptr %1, ptr %8, align 8
  %9 = tail call align 8 ptr @llvm.threadlocal.address.p0(ptr align 8 @stack_top)
  %10 = load ptr, ptr %9, align 8
  store ptr %10, ptr %0, align 8
  store ptr %0, ptr %9, align 8
  ret void
}